; Function Attrs: nounwind uwtable
define noalias nonnull ptr @l_Lean_Meta_reducePow___lambda__5(ptr noundef %0, ptr readnone captures(none) %1, ptr readnone captures(none) %2, ptr readnone captures(none) %3, ptr readnone captures(none) %4, ptr readnone captures(none) %5, ptr noundef %6) local_unnamed_addr #1 {
  %8 = tail call ptr @lean_nat_pow(ptr noundef %0, ptr noundef nonnull inttoptr (i64 1 to ptr)) #5
  %9 = tail call ptr @l_Lean_mkRawNatLit(ptr noundef %8) #5
  tail call void @lean_inc_heartbeat() #5
  %10 = tail call noalias ptr @mi_malloc_small(i64 noundef 16) #5
  %11 = icmp eq ptr %10, null
  br i1 %11, label %12, label %lean_alloc_ctor.exit

12:                                               ; preds = %7
  tail call void @lean_internal_panic_out_of_memory() #4
  unreachable

lean_alloc_ctor.exit:                             ; preds = %7
  %13 = getelementptr inbounds nuw i8, ptr %10, i64 4
  store i32 1, ptr %10, align 4, !tbaa !4
  store i32 16842768, ptr %13, align 4
  %14 = getelementptr inbounds nuw i8, ptr %10, i64 8
  store ptr %9, ptr %14, align 8, !tbaa !12
  tail call void @lean_inc_heartbeat() #5
  %15 = tail call noalias ptr @mi_malloc_small(i64 noundef 24) #5
  %16 = icmp eq ptr %15, null
  br i1 %16, label %17, label %lean_alloc_ctor.exit10

17:                                               ; preds = %lean_alloc_ctor.exit
  tail call void @lean_internal_panic_out_of_memory() #4
  unreachable

lean_alloc_ctor.exit10:                           ; preds = %lean_alloc_ctor.exit
  %18 = getelementptr inbounds nuw i8, ptr %15, i64 4
  store i32 1, ptr %15, align 4, !tbaa !4
  store i32 131096, ptr %18, align 4
  %19 = getelementptr inbounds nuw i8, ptr %15, i64 8
  store ptr %10, ptr %19, align 8, !tbaa !12
  %20 = getelementptr inbounds nuw i8, ptr %15, i64 16
  store ptr %6, ptr %20, align 8, !tbaa !12
  ret ptr %15
}